; Function Attrs: mustprogress uwtable
define dso_local noundef ptr @_ZN4Luau6TxnLog9bindTableEPKNS_4TypeESt8optionalIS3_E(ptr noundef nonnull align 8 dereferenceable(128) %0, ptr noundef %1, ptr %2, i8 %3) local_unnamed_addr #3 align 2 {
  %5 = tail call noundef ptr @_ZN4Luau6TxnLog5queueEPKNS_4TypeE(ptr noundef nonnull align 8 dereferenceable(128) %0, ptr noundef %1)
  %6 = tail call noundef ptr @_ZN4Luau9asMutableEPKNS_4TypeE(ptr noundef %5)
  %.not.i.i.i = icmp eq ptr %6, null
  br i1 %.not.i.i.i, label %_ZN4Luau10getMutableINS_9TableTypeEEEPT_PNS_11PendingTypeE.exit.thread, label %7

7:                                                ; preds = %4
  %8 = load i32, ptr %6, align 8
  %9 = icmp eq i32 %8, 9
  br i1 %9, label %_ZN4Luau10getMutableINS_9TableTypeEEEPT_PNS_11PendingTypeE.exit, label %_ZN4Luau10getMutableINS_9TableTypeEEEPT_PNS_11PendingTypeE.exit.thread

_ZN4Luau10getMutableINS_9TableTypeEEEPT_PNS_11PendingTypeE.exit: ; preds = %7
  %10 = getelementptr inbounds i8, ptr %6, i64 280
  store ptr %2, ptr %10, align 8
  %.sroa.2.0..sroa_idx = getelementptr inbounds i8, ptr %6, i64 288
  store i8 %3, ptr %.sroa.2.0..sroa_idx, align 8
  br label %_ZN4Luau10getMutableINS_9TableTypeEEEPT_PNS_11PendingTypeE.exit.thread

_ZN4Luau10getMutableINS_9TableTypeEEEPT_PNS_11PendingTypeE.exit.thread: ; preds = %4, %7, %_ZN4Luau10getMutableINS_9TableTypeEEEPT_PNS_11PendingTypeE.exit
  ret ptr %5
}